target datalayout = "e-m:e-p270:32:32-p271:32:32-p272:64:64-i64:64-i128:128-f80:128-n8:16:32:64-S128"
target triple = "x86_64-pc-linux-gnu"

%union.pthread_mutex_t = type { %struct.__pthread_mutex_s }
%struct.__pthread_mutex_s = type { i32, i32, i32, i32, i32, i16, i16, %struct.__pthread_internal_list }
%struct.__pthread_internal_list = type { ptr, ptr }
%struct.wolfSSL_RefWithMutex = type { %union.pthread_mutex_t, i32 }
%struct.WOLFSSL_CERT_MANAGER = type { [11 x ptr], ptr, ptr, ptr, ptr, ptr, ptr, ptr, ptr, ptr, ptr, ptr, ptr, %union.pthread_mutex_t, i8, i16, i16, %struct.wolfSSL_RefWithMutex }
%struct.WOLFSSL_CTX = type <{ ptr, %struct.wolfSSL_RefWithMutex, i32, [4 x i8], %struct.WOLFSSL_BUFFER_INFO, %struct.WOLFSSL_BUFFER_INFO, ptr, ptr, i32, [4 x i8], ptr, i8, i8, [2 x i8], i32, i32, [4 x i8], ptr, ptr, ptr, i8, i16, i8, i8, i8, i16, i16, i16, i16, [2 x i8], i64, ptr, ptr, ptr, ptr, i32, i32, i16, [2 x i8], i32, [10 x i16], i8, [3 x i8], ptr, ptr, i32, [4 x i8], ptr, i8, [7 x i8] }>
%struct.WOLFSSL_BUFFER_INFO = type { ptr, i32 }

; Function Attrs: nounwind uwtable
define internal i32 @wolfSSL_CertManagerUnloadIntermediateCertsEx(ptr noundef %0, i8 noundef zeroext %1) #0 {
  %3 = alloca ptr, align 8
  %4 = alloca i8, align 1
  %5 = alloca i32, align 4
  store ptr %0, ptr %3, align 8, !tbaa !9
  store i8 %1, ptr %4, align 1, !tbaa !20
  call void @llvm.lifetime.start.p0(i64 4, ptr %5) #9
  store i32 1, ptr %5, align 4, !tbaa !7
  br label %6

6:                                                ; preds = %2
  br label %7

7:                                                ; preds = %6
  br label %8

8:                                                ; preds = %7
  %9 = load ptr, ptr %3, align 8, !tbaa !9
  %10 = icmp eq ptr %9, null
  br i1 %10, label %11, label %12

11:                                               ; preds = %8
  store i32 -173, ptr %5, align 4, !tbaa !7
  br label %12

12:                                               ; preds = %11, %8
  %13 = load i32, ptr %5, align 4, !tbaa !7
  %14 = icmp eq i32 %13, 1
  br i1 %14, label %15, label %21

15:                                               ; preds = %12
  %16 = load ptr, ptr %3, align 8, !tbaa !9
  %17 = getelementptr inbounds nuw %struct.WOLFSSL_CERT_MANAGER, ptr %16, i32 0, i32 13
  %18 = call i32 @wc_LockMutex(ptr noundef %17)
  %19 = icmp ne i32 %18, 0
  br i1 %19, label %20, label %21

20:                                               ; preds = %15
  store i32 -106, ptr %5, align 4, !tbaa !7
  br label %21

21:                                               ; preds = %20, %15, %12
  %22 = load i32, ptr %5, align 4, !tbaa !7
  %23 = icmp eq i32 %22, 1
  br i1 %23, label %24, label %35

24:                                               ; preds = %21
  %25 = load ptr, ptr %3, align 8, !tbaa !9
  %26 = getelementptr inbounds nuw %struct.WOLFSSL_CERT_MANAGER, ptr %25, i32 0, i32 0
  %27 = getelementptr inbounds [11 x ptr], ptr %26, i64 0, i64 0
  %28 = load i8, ptr %4, align 1, !tbaa !20
  %29 = load ptr, ptr %3, align 8, !tbaa !9
  %30 = getelementptr inbounds nuw %struct.WOLFSSL_CERT_MANAGER, ptr %29, i32 0, i32 1
  %31 = load ptr, ptr %30, align 8, !tbaa !19
  call void @FreeSignerTableType(ptr noundef %27, i32 noundef 11, i8 noundef zeroext %28, ptr noundef %31)
  %32 = load ptr, ptr %3, align 8, !tbaa !9
  %33 = getelementptr inbounds nuw %struct.WOLFSSL_CERT_MANAGER, ptr %32, i32 0, i32 13
  %34 = call i32 @wc_UnLockMutex(ptr noundef %33)
  br label %35

35:                                               ; preds = %24, %21
  %36 = load i32, ptr %5, align 4, !tbaa !7
  call void @llvm.lifetime.end.p0(i64 4, ptr %5) #9
  ret i32 %36
}

; Function Attrs: nounwind uwtable
define i32 @wolfSSL_CertManagerUnloadIntermediateCerts(ptr noundef %0) #0 {
  %2 = alloca ptr, align 8
  store ptr %0, ptr %2, align 8, !tbaa !9
  br label %3

3:                                                ; preds = %1
  br label %4

4:                                                ; preds = %3
  %5 = load ptr, ptr %2, align 8, !tbaa !9
  %6 = call i32 @wolfSSL_CertManagerUnloadIntermediateCertsEx(ptr noundef %5, i8 noundef zeroext 2)
  ret i32 %6
}

; Function Attrs: nounwind uwtable
define i32 @wolfSSL_CTX_UnloadIntermediateCerts(ptr noundef %0) #0 {
  %2 = alloca i32, align 4
  %3 = alloca ptr, align 8
  %4 = alloca i32, align 4
  %5 = alloca i32, align 4
  store ptr %0, ptr %3, align 8, !tbaa !24
  call void @llvm.lifetime.start.p0(i64 4, ptr %4) #9
  br label %6

6:                                                ; preds = %1
  br label %7

7:                                                ; preds = %6
  br label %8

8:                                                ; preds = %7
  %9 = load ptr, ptr %3, align 8, !tbaa !24
  %10 = icmp eq ptr %9, null
  br i1 %10, label %11, label %12

11:                                               ; preds = %8
  store i32 -173, ptr %2, align 4
  store i32 1, ptr %5, align 4
  br label %46

12:                                               ; preds = %8
  %13 = load ptr, ptr %3, align 8, !tbaa !24
  %14 = getelementptr inbounds nuw %struct.WOLFSSL_CTX, ptr %13, i32 0, i32 1
  %15 = call i32 @wolfSSL_RefWithMutexLock(ptr noundef %14)
  store i32 %15, ptr %4, align 4, !tbaa !7
  %16 = load i32, ptr %4, align 4, !tbaa !7
  %17 = icmp slt i32 %16, 0
  br i1 %17, label %18, label %20

18:                                               ; preds = %12
  %19 = load i32, ptr %4, align 4, !tbaa !7
  store i32 %19, ptr %2, align 4
  store i32 1, ptr %5, align 4
  br label %46

20:                                               ; preds = %12
  %21 = load ptr, ptr %3, align 8, !tbaa !24
  %22 = getelementptr inbounds nuw %struct.WOLFSSL_CTX, ptr %21, i32 0, i32 1
  %23 = getelementptr inbounds nuw %struct.wolfSSL_RefWithMutex, ptr %22, i32 0, i32 1
  %24 = load i32, ptr %23, align 8, !tbaa !271
  %25 = icmp sgt i32 %24, 1
  br i1 %25, label %26, label %30

26:                                               ; preds = %20
  br label %27

27:                                               ; preds = %26
  br label %28

28:                                               ; preds = %27
  br label %29

29:                                               ; preds = %28
  store i32 -192, ptr %4, align 4, !tbaa !7
  br label %35

30:                                               ; preds = %20
  %31 = load ptr, ptr %3, align 8, !tbaa !24
  %32 = getelementptr inbounds nuw %struct.WOLFSSL_CTX, ptr %31, i32 0, i32 17
  %33 = load ptr, ptr %32, align 8, !tbaa !26
  %34 = call i32 @wolfSSL_CertManagerUnloadIntermediateCerts(ptr noundef %33)
  store i32 %34, ptr %4, align 4, !tbaa !7
  br label %35

35:                                               ; preds = %30, %29
  %36 = load ptr, ptr %3, align 8, !tbaa !24
  %37 = getelementptr inbounds nuw %struct.WOLFSSL_CTX, ptr %36, i32 0, i32 1
  %38 = call i32 @wolfSSL_RefWithMutexUnlock(ptr noundef %37)
  %39 = icmp ne i32 %38, 0
  br i1 %39, label %40, label %44

40:                                               ; preds = %35
  br label %41

41:                                               ; preds = %40
  br label %42

42:                                               ; preds = %41
  br label %43

43:                                               ; preds = %42
  br label %44

44:                                               ; preds = %43, %35
  %45 = load i32, ptr %4, align 4, !tbaa !7
  store i32 %45, ptr %2, align 4
  store i32 1, ptr %5, align 4
  br label %46

46:                                               ; preds = %44, %18, %11
  call void @llvm.lifetime.end.p0(i64 4, ptr %4) #9
  %47 = load i32, ptr %2, align 4
  ret i32 %47
}