; Function Attrs: nounwind uwtable
define range(i32 -2147483648, 2) i32 @wolfSSL_CTX_UnloadIntermediateCerts(ptr noundef %0) local_unnamed_addr #0 {
  %2 = icmp eq ptr %0, null
  br i1 %2, label %21, label %3

3:                                                ; preds = %1
  %4 = getelementptr inbounds nuw i8, ptr %0, i64 8
  %5 = tail call i32 @wolfSSL_RefWithMutexLock(ptr noundef nonnull %4) #22
  %6 = icmp slt i32 %5, 0
  br i1 %6, label %21, label %7

7:                                                ; preds = %3
  %8 = getelementptr inbounds nuw i8, ptr %0, i64 48
  %9 = load i32, ptr %8, align 8, !tbaa !245
  %10 = icmp sgt i32 %9, 1
  br i1 %10, label %wolfSSL_CertManagerUnloadIntermediateCerts.exit, label %11

11:                                               ; preds = %7
  %12 = getelementptr inbounds nuw i8, ptr %0, i64 144
  %13 = load ptr, ptr %12, align 8, !tbaa !26
  %.not.i.i = icmp eq ptr %13, null
  br i1 %.not.i.i, label %wolfSSL_CertManagerUnloadIntermediateCerts.exit, label %14

14:                                               ; preds = %11
  %15 = getelementptr inbounds nuw i8, ptr %13, i64 184
  %16 = tail call i32 @wc_LockMutex(ptr noundef nonnull %15) #22
  %.not8.i.i = icmp eq i32 %16, 0
  br i1 %.not8.i.i, label %.thread.i.i, label %wolfSSL_CertManagerUnloadIntermediateCerts.exit

.thread.i.i:                                      ; preds = %14
  %17 = getelementptr inbounds nuw i8, ptr %13, i64 88
  %18 = load ptr, ptr %17, align 8, !tbaa !16
  tail call void @FreeSignerTableType(ptr noundef nonnull %13, i32 noundef 11, i8 noundef zeroext 2, ptr noundef %18) #22
  %19 = tail call i32 @wc_UnLockMutex(ptr noundef nonnull %15) #22
  br label %wolfSSL_CertManagerUnloadIntermediateCerts.exit

wolfSSL_CertManagerUnloadIntermediateCerts.exit:  ; preds = %.thread.i.i, %14, %11, %7
  %.0 = phi i32 [ -192, %7 ], [ 1, %.thread.i.i ], [ -106, %14 ], [ -173, %11 ]
  %20 = tail call i32 @wolfSSL_RefWithMutexUnlock(ptr noundef nonnull %4) #22
  br label %21

21:                                               ; preds = %3, %1, %wolfSSL_CertManagerUnloadIntermediateCerts.exit
  %.08 = phi i32 [ %.0, %wolfSSL_CertManagerUnloadIntermediateCerts.exit ], [ -173, %1 ], [ %5, %3 ]
  ret i32 %.08
}